target datalayout = "e-m:e-p270:32:32-p271:32:32-p272:64:64-i64:64-i128:128-f80:128-n8:16:32:64-S128"
target triple = "x86_64-unknown-linux-gnu"

%"class.FLAC::Metadata::SimpleIterator" = type { ptr, ptr }

; Function Attrs: mustprogress sspstrong uwtable
define void @_ZN4FLAC8Metadata14SimpleIterator5clearEv(ptr noundef nonnull align 8 dereferenceable(16) %this) #0 align 2 {
entry:
  %this.addr = alloca ptr, align 8
  store ptr %this, ptr %this.addr, align 8
  %this1 = load ptr, ptr %this.addr, align 8
  %iterator_ = getelementptr inbounds %"class.FLAC::Metadata::SimpleIterator", ptr %this1, i32 0, i32 1
  %0 = load ptr, ptr %iterator_, align 8
  %cmp = icmp ne ptr null, %0
  br i1 %cmp, label %if.then, label %if.end

if.then:                                          ; preds = %entry
  %iterator_2 = getelementptr inbounds %"class.FLAC::Metadata::SimpleIterator", ptr %this1, i32 0, i32 1
  %1 = load ptr, ptr %iterator_2, align 8
  call void @FLAC__metadata_simple_iterator_delete(ptr noundef %1)
  br label %if.end

if.end:                                           ; preds = %if.then, %entry
  %iterator_3 = getelementptr inbounds %"class.FLAC::Metadata::SimpleIterator", ptr %this1, i32 0, i32 1
  store ptr null, ptr %iterator_3, align 8
  ret void
}