; Function Attrs: mustprogress sspstrong uwtable
define void @_ZN4FLAC8Metadata14SimpleIterator5clearEv(ptr nocapture noundef nonnull align 8 dereferenceable(16) %this) local_unnamed_addr #0 align 2 {
entry:
  %iterator_ = getelementptr inbounds i8, ptr %this, i64 8
  %0 = load ptr, ptr %iterator_, align 8
  %cmp.not = icmp eq ptr %0, null
  br i1 %cmp.not, label %if.end, label %if.then

if.then:                                          ; preds = %entry
  tail call void @FLAC__metadata_simple_iterator_delete(ptr noundef nonnull %0)
  br label %if.end

if.end:                                           ; preds = %if.then, %entry
  store ptr null, ptr %iterator_, align 8
  ret void
}